target datalayout = "e-m:e-p270:32:32-p271:32:32-p272:64:64-i64:64-i128:128-f80:128-n8:16:32:64-S128"
target triple = "x86_64-unknown-linux-gnu"

%struct.QemuMutex = type { %union.pthread_mutex_t, i8 }
%union.pthread_mutex_t = type { %struct.__pthread_mutex_s }
%struct.__pthread_mutex_s = type { i32, i32, i32, i32, i32, i16, i16, %struct.__pthread_internal_list }
%struct.__pthread_internal_list = type { ptr, ptr }
%struct.QTailQLink = type { ptr, ptr }
%struct.CompareState = type { %struct.Object, ptr, ptr, ptr, ptr, %struct.CharBackend, %struct.CharBackend, %struct.CharBackend, %struct.CharBackend, %struct.SocketReadState, %struct.SocketReadState, %struct.SocketReadState, %struct.SendCo, %struct.SendCo, i8, i64, i32, %struct._GQueue, ptr, ptr, ptr, ptr, ptr, i32, %union.anon.0 }
%struct.Object = type { ptr, ptr, ptr, i32, ptr }
%struct.CharBackend = type { ptr, ptr, ptr, ptr, ptr, ptr, i32, i32 }
%struct.SocketReadState = type { i32, i8, i32, i32, i32, [69632 x i8], ptr }
%struct.SendCo = type { ptr, ptr, ptr, %struct._GQueue, i8, i8, i32 }
%struct._GQueue = type { ptr, ptr, i32 }
%union.anon.0 = type { %struct.QTailQLink }
%struct.AioContext = type { %struct._GSource, %struct.QemuRecMutex, ptr, %struct.AioHandlerList, %struct.AioHandlerList, i32, %struct.QemuLockCnt, %struct.BHList, %struct.anon.3, i8, %struct.EventNotifier, %struct.anon.4, ptr, i32, i32, ptr, ptr, %struct.io_uring, %struct.AioHandlerSList, %struct.QEMUTimerListGroup, i32, i64, i64, i64, i64, i64, %struct.AioHandlerList, i8, i32, ptr }
%struct._GSource = type { ptr, ptr, ptr, i32, ptr, i32, i32, i32, ptr, ptr, ptr, ptr, ptr }
%struct.QemuRecMutex = type { %struct.QemuMutex }
%struct.QemuLockCnt = type { i32 }
%struct.BHList = type { ptr }
%struct.anon.3 = type { ptr, ptr }
%struct.EventNotifier = type { i32, i32, i8 }
%struct.anon.4 = type { ptr }
%struct.io_uring = type { %struct.io_uring_sq, %struct.io_uring_cq, i32, i32, i32, [3 x i32] }
%struct.io_uring_sq = type { ptr, ptr, ptr, ptr, ptr, ptr, ptr, ptr, i32, i32, i64, ptr, [4 x i32] }
%struct.io_uring_cq = type { ptr, ptr, ptr, ptr, ptr, ptr, ptr, i64, ptr, [4 x i32] }
%struct.AioHandlerSList = type { ptr }
%struct.QEMUTimerListGroup = type { [4 x ptr] }
%struct.AioHandlerList = type { ptr }

@.str.60 = private unnamed_addr constant [26 x i8] c"colo_compare_handle_event\00", align 1

; Function Attrs: nounwind sspstrong uwtable
define internal ptr @timer_new_full(ptr noundef %timer_list_group, i32 noundef %type, i32 noundef %scale, i32 noundef %attributes, ptr noundef %cb, ptr noundef %opaque) #0 {
entry:
  %timer_list_group.addr = alloca ptr, align 8
  %type.addr = alloca i32, align 4
  %scale.addr = alloca i32, align 4
  %attributes.addr = alloca i32, align 4
  %cb.addr = alloca ptr, align 8
  %opaque.addr = alloca ptr, align 8
  %ts = alloca ptr, align 8
  store ptr %timer_list_group, ptr %timer_list_group.addr, align 8
  store i32 %type, ptr %type.addr, align 4
  store i32 %scale, ptr %scale.addr, align 4
  store i32 %attributes, ptr %attributes.addr, align 4
  store ptr %cb, ptr %cb.addr, align 8
  store ptr %opaque, ptr %opaque.addr, align 8
  %call = call noalias ptr @g_malloc0_n(i64 noundef 1, i64 noundef 48) #16
  store ptr %call, ptr %ts, align 8
  %0 = load ptr, ptr %ts, align 8
  %1 = load ptr, ptr %timer_list_group.addr, align 8
  %2 = load i32, ptr %type.addr, align 4
  %3 = load i32, ptr %scale.addr, align 4
  %4 = load i32, ptr %attributes.addr, align 4
  %5 = load ptr, ptr %cb.addr, align 8
  %6 = load ptr, ptr %opaque.addr, align 8
  call void @timer_init_full(ptr noundef %0, ptr noundef %1, i32 noundef %2, i32 noundef %3, i32 noundef %4, ptr noundef %5, ptr noundef %6)
  %7 = load ptr, ptr %ts, align 8
  ret ptr %7
}

; Function Attrs: nounwind sspstrong uwtable
define internal i64 @qemu_clock_get_ms(i32 noundef %type) #0 {
entry:
  %type.addr = alloca i32, align 4
  store i32 %type, ptr %type.addr, align 4
  %0 = load i32, ptr %type.addr, align 4
  %call = call i64 @qemu_clock_get_ns(i32 noundef %0)
  %div = sdiv i64 %call, 1000000
  ret i64 %div
}

; Function Attrs: nounwind sspstrong uwtable
define internal ptr @aio_timer_new(ptr noundef %ctx, i32 noundef %type, i32 noundef %scale, ptr noundef %cb, ptr noundef %opaque) #0 {
entry:
  %ctx.addr = alloca ptr, align 8
  %type.addr = alloca i32, align 4
  %scale.addr = alloca i32, align 4
  %cb.addr = alloca ptr, align 8
  %opaque.addr = alloca ptr, align 8
  store ptr %ctx, ptr %ctx.addr, align 8
  store i32 %type, ptr %type.addr, align 4
  store i32 %scale, ptr %scale.addr, align 4
  store ptr %cb, ptr %cb.addr, align 8
  store ptr %opaque, ptr %opaque.addr, align 8
  %0 = load ptr, ptr %ctx.addr, align 8
  %tlg = getelementptr inbounds %struct.AioContext, ptr %0, i32 0, i32 19
  %1 = load i32, ptr %type.addr, align 4
  %2 = load i32, ptr %scale.addr, align 4
  %3 = load ptr, ptr %cb.addr, align 8
  %4 = load ptr, ptr %opaque.addr, align 8
  %call = call ptr @timer_new_full(ptr noundef %tlg, i32 noundef %1, i32 noundef %2, i32 noundef 0, ptr noundef %3, ptr noundef %4)
  ret ptr %call
}

; Function Attrs: nounwind sspstrong uwtable
define internal void @colo_compare_timer_init(ptr noundef %s) #0 {
entry:
  %s.addr = alloca ptr, align 8
  %ctx = alloca ptr, align 8
  store ptr %s, ptr %s.addr, align 8
  %0 = load ptr, ptr %s.addr, align 8
  %iothread = getelementptr inbounds %struct.CompareState, ptr %0, i32 0, i32 19
  %1 = load ptr, ptr %iothread, align 8
  %call = call ptr @iothread_get_aio_context(ptr noundef %1)
  store ptr %call, ptr %ctx, align 8
  %2 = load ptr, ptr %ctx, align 8
  %3 = load ptr, ptr %s.addr, align 8
  %call1 = call ptr @aio_timer_new(ptr noundef %2, i32 noundef 2, i32 noundef 1000000, ptr noundef @check_old_packet_regular, ptr noundef %3)
  %4 = load ptr, ptr %s.addr, align 8
  %packet_check_timer = getelementptr inbounds %struct.CompareState, ptr %4, i32 0, i32 21
  store ptr %call1, ptr %packet_check_timer, align 8
  %5 = load ptr, ptr %s.addr, align 8
  %packet_check_timer2 = getelementptr inbounds %struct.CompareState, ptr %5, i32 0, i32 21
  %6 = load ptr, ptr %packet_check_timer2, align 8
  %call3 = call i64 @qemu_clock_get_ms(i32 noundef 2)
  %7 = load ptr, ptr %s.addr, align 8
  %expired_scan_cycle = getelementptr inbounds %struct.CompareState, ptr %7, i32 0, i32 16
  %8 = load i32, ptr %expired_scan_cycle, align 8
  %conv = zext i32 %8 to i64
  %add = add i64 %call3, %conv
  call void @timer_mod(ptr noundef %6, i64 noundef %add)
  ret void
}

; Function Attrs: nounwind sspstrong uwtable
define internal void @colo_compare_iothread(ptr noundef %s) #0 {
entry:
  %s.addr = alloca ptr, align 8
  %ctx = alloca ptr, align 8
  store ptr %s, ptr %s.addr, align 8
  %0 = load ptr, ptr %s.addr, align 8
  %iothread = getelementptr inbounds %struct.CompareState, ptr %0, i32 0, i32 19
  %1 = load ptr, ptr %iothread, align 8
  %call = call ptr @iothread_get_aio_context(ptr noundef %1)
  store ptr %call, ptr %ctx, align 8
  %2 = load ptr, ptr %s.addr, align 8
  %iothread1 = getelementptr inbounds %struct.CompareState, ptr %2, i32 0, i32 19
  %3 = load ptr, ptr %iothread1, align 8
  %call2 = call ptr @object_ref(ptr noundef %3)
  %4 = load ptr, ptr %s.addr, align 8
  %iothread3 = getelementptr inbounds %struct.CompareState, ptr %4, i32 0, i32 19
  %5 = load ptr, ptr %iothread3, align 8
  %call4 = call ptr @iothread_get_g_main_context(ptr noundef %5)
  %6 = load ptr, ptr %s.addr, align 8
  %worker_context = getelementptr inbounds %struct.CompareState, ptr %6, i32 0, i32 20
  store ptr %call4, ptr %worker_context, align 8
  %7 = load ptr, ptr %s.addr, align 8
  %chr_pri_in = getelementptr inbounds %struct.CompareState, ptr %7, i32 0, i32 5
  %8 = load ptr, ptr %s.addr, align 8
  %9 = load ptr, ptr %s.addr, align 8
  %worker_context5 = getelementptr inbounds %struct.CompareState, ptr %9, i32 0, i32 20
  %10 = load ptr, ptr %worker_context5, align 8
  call void @qemu_chr_fe_set_handlers(ptr noundef %chr_pri_in, ptr noundef @compare_chr_can_read, ptr noundef @compare_pri_chr_in, ptr noundef null, ptr noundef null, ptr noundef %8, ptr noundef %10, i1 noundef zeroext true)
  %11 = load ptr, ptr %s.addr, align 8
  %chr_sec_in = getelementptr inbounds %struct.CompareState, ptr %11, i32 0, i32 6
  %12 = load ptr, ptr %s.addr, align 8
  %13 = load ptr, ptr %s.addr, align 8
  %worker_context6 = getelementptr inbounds %struct.CompareState, ptr %13, i32 0, i32 20
  %14 = load ptr, ptr %worker_context6, align 8
  call void @qemu_chr_fe_set_handlers(ptr noundef %chr_sec_in, ptr noundef @compare_chr_can_read, ptr noundef @compare_sec_chr_in, ptr noundef null, ptr noundef null, ptr noundef %12, ptr noundef %14, i1 noundef zeroext true)
  %15 = load ptr, ptr %s.addr, align 8
  %notify_dev = getelementptr inbounds %struct.CompareState, ptr %15, i32 0, i32 4
  %16 = load ptr, ptr %notify_dev, align 8
  %tobool = icmp ne ptr %16, null
  br i1 %tobool, label %if.then, label %if.end

if.then:                                          ; preds = %entry
  %17 = load ptr, ptr %s.addr, align 8
  %chr_notify_dev = getelementptr inbounds %struct.CompareState, ptr %17, i32 0, i32 8
  %18 = load ptr, ptr %s.addr, align 8
  %19 = load ptr, ptr %s.addr, align 8
  %worker_context7 = getelementptr inbounds %struct.CompareState, ptr %19, i32 0, i32 20
  %20 = load ptr, ptr %worker_context7, align 8
  call void @qemu_chr_fe_set_handlers(ptr noundef %chr_notify_dev, ptr noundef @compare_chr_can_read, ptr noundef @compare_notify_chr, ptr noundef null, ptr noundef null, ptr noundef %18, ptr noundef %20, i1 noundef zeroext true)
  br label %if.end

if.end:                                           ; preds = %if.then, %entry
  %21 = load ptr, ptr %s.addr, align 8
  call void @colo_compare_timer_init(ptr noundef %21)
  %22 = load ptr, ptr %ctx, align 8
  %23 = load ptr, ptr %s.addr, align 8
  %call8 = call ptr @aio_bh_new_full(ptr noundef %22, ptr noundef @colo_compare_handle_event, ptr noundef %23, ptr noundef @.str.60, ptr noundef null)
  %24 = load ptr, ptr %s.addr, align 8
  %event_bh = getelementptr inbounds %struct.CompareState, ptr %24, i32 0, i32 22
  store ptr %call8, ptr %event_bh, align 8
  ret void
}