; Function Attrs: nounwind sspstrong uwtable
define internal fastcc void @colo_compare_iothread(ptr noundef initializes((209464, 209472)) %s) unnamed_addr #0 {
entry:
  %iothread = getelementptr inbounds nuw i8, ptr %s, i64 209456
  %0 = load ptr, ptr %iothread, align 8
  %call = tail call ptr @iothread_get_aio_context(ptr noundef %0) #16
  %1 = load ptr, ptr %iothread, align 8
  %call2 = tail call ptr @object_ref(ptr noundef %1) #16
  %2 = load ptr, ptr %iothread, align 8
  %call4 = tail call ptr @iothread_get_g_main_context(ptr noundef %2) #16
  %worker_context = getelementptr inbounds nuw i8, ptr %s, i64 209464
  store ptr %call4, ptr %worker_context, align 8
  %chr_pri_in = getelementptr inbounds nuw i8, ptr %s, i64 72
  tail call void @qemu_chr_fe_set_handlers(ptr noundef nonnull %chr_pri_in, ptr noundef nonnull @compare_chr_can_read, ptr noundef nonnull @compare_pri_chr_in, ptr noundef null, ptr noundef null, ptr noundef %s, ptr noundef %call4, i1 noundef zeroext true) #16
  %chr_sec_in = getelementptr inbounds nuw i8, ptr %s, i64 128
  %3 = load ptr, ptr %worker_context, align 8
  tail call void @qemu_chr_fe_set_handlers(ptr noundef nonnull %chr_sec_in, ptr noundef nonnull @compare_chr_can_read, ptr noundef nonnull @compare_sec_chr_in, ptr noundef null, ptr noundef null, ptr noundef %s, ptr noundef %3, i1 noundef zeroext true) #16
  %notify_dev = getelementptr inbounds nuw i8, ptr %s, i64 64
  %4 = load ptr, ptr %notify_dev, align 8
  %tobool.not = icmp eq ptr %4, null
  br i1 %tobool.not, label %if.end, label %if.then

if.then:                                          ; preds = %entry
  %chr_notify_dev = getelementptr inbounds nuw i8, ptr %s, i64 240
  %5 = load ptr, ptr %worker_context, align 8
  tail call void @qemu_chr_fe_set_handlers(ptr noundef nonnull %chr_notify_dev, ptr noundef nonnull @compare_chr_can_read, ptr noundef nonnull @compare_notify_chr, ptr noundef null, ptr noundef null, ptr noundef nonnull %s, ptr noundef %5, i1 noundef zeroext true) #16
  br label %if.end

if.end:                                           ; preds = %if.then, %entry
  %6 = load ptr, ptr %iothread, align 8
  %call.i = tail call ptr @iothread_get_aio_context(ptr noundef %6) #16
  %tlg.i.i = getelementptr inbounds nuw i8, ptr %call.i, i64 480
  %call.i.i.i = tail call noalias dereferenceable_or_null(48) ptr @g_malloc0_n(i64 noundef 1, i64 noundef 48) #21
  tail call void @timer_init_full(ptr noundef %call.i.i.i, ptr noundef nonnull %tlg.i.i, i32 noundef 2, i32 noundef 1000000, i32 noundef 0, ptr noundef nonnull @check_old_packet_regular, ptr noundef nonnull %s) #16
  %packet_check_timer.i = getelementptr inbounds nuw i8, ptr %s, i64 209472
  store ptr %call.i.i.i, ptr %packet_check_timer.i, align 8
  %call.i.i = tail call i64 @qemu_clock_get_ns(i32 noundef 2) #16
  %div.i.i = sdiv i64 %call.i.i, 1000000
  %expired_scan_cycle.i = getelementptr inbounds nuw i8, ptr %s, i64 209416
  %7 = load i32, ptr %expired_scan_cycle.i, align 8
  %conv.i = zext i32 %7 to i64
  %add.i = add nsw i64 %div.i.i, %conv.i
  tail call void @timer_mod(ptr noundef %call.i.i.i, i64 noundef %add.i) #16
  %call8 = tail call ptr @aio_bh_new_full(ptr noundef %call, ptr noundef nonnull @colo_compare_handle_event, ptr noundef nonnull %s, ptr noundef nonnull @.str.60, ptr noundef null) #16
  %event_bh = getelementptr inbounds nuw i8, ptr %s, i64 209480
  store ptr %call8, ptr %event_bh, align 8
  ret void
}